; Function Attrs: mustprogress uwtable
define void @_ZN5faiss17AdditiveQuantizer18set_derived_valuesEv(ptr noundef nonnull align 8 dereferenceable(308) %0) local_unnamed_addr #0 align 2 personality ptr @__gxx_personality_v0 {
  %2 = alloca i64, align 8
  %3 = getelementptr inbounds i8, ptr %0, i64 104
  store i64 0, ptr %3, align 8
  %4 = getelementptr inbounds i8, ptr %0, i64 128
  store i8 1, ptr %4, align 8
  %5 = getelementptr inbounds i8, ptr %0, i64 80
  %6 = getelementptr inbounds i8, ptr %0, i64 24
  %7 = load i64, ptr %6, align 8
  %8 = add i64 %7, 1
  store i64 0, ptr %2, align 8
  %9 = getelementptr inbounds i8, ptr %0, i64 88
  %10 = load ptr, ptr %9, align 8
  %11 = load ptr, ptr %5, align 8
  %12 = ptrtoint ptr %10 to i64
  %13 = ptrtoint ptr %11 to i64
  %14 = sub i64 %12, %13
  %15 = ashr exact i64 %14, 3
  %16 = icmp ult i64 %15, %8
  br i1 %16, label %17, label %19

17:                                               ; preds = %1
  %18 = sub i64 %8, %15
  call void @_ZNSt6vectorImSaImEE14_M_fill_insertEN9__gnu_cxx17__normal_iteratorIPmS1_EEmRKm(ptr noundef nonnull align 8 dereferenceable(24) %5, ptr %10, i64 noundef %18, ptr noundef nonnull align 8 dereferenceable(8) %2)
  %.pre = load i64, ptr %6, align 8
  br label %_ZNSt6vectorImSaImEE6resizeEmRKm.exit

19:                                               ; preds = %1
  %20 = icmp ugt i64 %15, %8
  br i1 %20, label %21, label %_ZNSt6vectorImSaImEE6resizeEmRKm.exit

21:                                               ; preds = %19
  %22 = getelementptr inbounds i64, ptr %11, i64 %8
  %.not.i.i = icmp eq ptr %10, %22
  br i1 %.not.i.i, label %_ZNSt6vectorImSaImEE6resizeEmRKm.exit, label %23

23:                                               ; preds = %21
  store ptr %22, ptr %9, align 8
  br label %_ZNSt6vectorImSaImEE6resizeEmRKm.exit

_ZNSt6vectorImSaImEE6resizeEmRKm.exit:            ; preds = %17, %19, %21, %23
  %24 = phi i64 [ %.pre, %17 ], [ %7, %19 ], [ %7, %21 ], [ %7, %23 ]
  %.not12 = icmp eq i64 %24, 0
  br i1 %.not12, label %._crit_edge, label %.lr.ph

.lr.ph:                                           ; preds = %_ZNSt6vectorImSaImEE6resizeEmRKm.exit
  %25 = getelementptr inbounds i8, ptr %0, i64 32
  br label %26

26:                                               ; preds = %.lr.ph, %42
  %indvars.iv = phi i64 [ 0, %.lr.ph ], [ %indvars.iv.next, %42 ]
  %27 = load ptr, ptr %25, align 8
  %28 = getelementptr inbounds i64, ptr %27, i64 %indvars.iv
  %29 = load i64, ptr %28, align 8
  %30 = trunc i64 %29 to i32
  %31 = shl nuw i32 1, %30
  %32 = sext i32 %31 to i64
  %33 = load ptr, ptr %5, align 8
  %34 = getelementptr inbounds i64, ptr %33, i64 %indvars.iv
  %35 = load i64, ptr %34, align 8
  %36 = add i64 %35, %32
  %indvars.iv.next = add nuw nsw i64 %indvars.iv, 1
  %37 = getelementptr inbounds i64, ptr %33, i64 %indvars.iv.next
  store i64 %36, ptr %37, align 8
  %sext = shl i64 %29, 32
  %38 = ashr exact i64 %sext, 32
  %39 = load i64, ptr %3, align 8
  %40 = add i64 %39, %38
  store i64 %40, ptr %3, align 8
  %.not = icmp eq i32 %30, 0
  br i1 %.not, label %42, label %41

41:                                               ; preds = %26
  store i8 0, ptr %4, align 8
  br label %42

42:                                               ; preds = %26, %41
  %43 = load i64, ptr %6, align 8
  %44 = icmp ugt i64 %43, %indvars.iv.next
  br i1 %44, label %26, label %._crit_edge, !llvm.loop !5

._crit_edge:                                      ; preds = %42, %_ZNSt6vectorImSaImEE6resizeEmRKm.exit
  %.lcssa = phi i64 [ 0, %_ZNSt6vectorImSaImEE6resizeEmRKm.exit ], [ %43, %42 ]
  %45 = load ptr, ptr %5, align 8
  %46 = getelementptr inbounds i64, ptr %45, i64 %.lcssa
  %47 = load i64, ptr %46, align 8
  %48 = getelementptr inbounds i8, ptr %0, i64 120
  store i64 %47, ptr %48, align 8
  %49 = getelementptr inbounds i8, ptr %0, i64 296
  %50 = load i32, ptr %49, align 8
  %switch.tableidx = add i32 %50, -3
  %51 = icmp ult i32 %switch.tableidx, 7
  br i1 %51, label %switch.lookup, label %53

switch.lookup:                                    ; preds = %._crit_edge
  %52 = zext nneg i32 %switch.tableidx to i64
  %switch.gep = getelementptr inbounds [7 x i64], ptr @switch.table._ZN5faiss17AdditiveQuantizer18set_derived_valuesEv, i64 0, i64 %52
  %switch.load = load i64, ptr %switch.gep, align 8
  br label %53

53:                                               ; preds = %._crit_edge, %switch.lookup
  %.sink = phi i64 [ %switch.load, %switch.lookup ], [ 0, %._crit_edge ]
  %54 = getelementptr inbounds i8, ptr %0, i64 112
  store i64 %.sink, ptr %54, align 8
  %55 = load i64, ptr %3, align 8
  %56 = add i64 %55, %.sink
  store i64 %56, ptr %3, align 8
  %57 = add i64 %56, 7
  %58 = lshr i64 %57, 3
  %59 = getelementptr inbounds i8, ptr %0, i64 16
  store i64 %58, ptr %59, align 8
  ret void
}